(dp0
S'request_token'
p1
ccopy_reg
_reconstructor
p2
(coauth2
Token
p3
c__builtin__
object
p4
Ntp5
Rp6
(dp7
S'secret'
p8
S'd626825329e6c31215c6983140dcda6f'
p9
sS'verifier'
p10
S'1f8ec7bd98'
p11
sS'key'
p12
S'b6ef777e7be8dc999daa029766e8f130050202a6e'
p13
sbsS'access_token'
p14
g2
(g3
g4
Ntp15
Rp16
(dp17
g8
S'43a5033069d244de4799028d8acadb8e'
p18
sg12
S'452524c8a29b3874831c62b80f3cc8d1050202a98'
p19
sbs.