(dp0
S'request_token'
p1
ccopy_reg
_reconstructor
p2
(coauth2
Token
p3
c__builtin__
object
p4
Ntp5
Rp6
(dp7
S'secret'
p8
S'7defcd5efbb7319e0b74897448b3f756'
p9
sS'verifier'
p10
S'737ab90962'
p11
sS'key'
p12
S'9f2d674295ddf8024a7dac2206b3aa1c0517855e3'
p13
sbsS'access_token'
p14
g2
(g3
g4
Ntp15
Rp16
(dp17
g8
S'b94ca346f0b90eb5a876f390b6aa59c3'
p18
sg12
S'003bedb56bd1a7e3e8cdac40030117b5051785613'
p19
sbs.